target datalayout = "e-m:e-p270:32:32-p271:32:32-p272:64:64-i64:64-i128:128-f80:128-n8:16:32:64-S128"
target triple = "x86_64-pc-linux-gnu"

%struct.preference = type { ptr, ptr, ptr, i32, i32, i32, %union.anon, %union.anon.0, %union.anon.1, %union.anon.2, %struct.pref_custom_cbs, ptr, ptr }
%union.anon = type { ptr }
%union.anon.0 = type { ptr }
%union.anon.1 = type { ptr }
%union.anon.2 = type { %struct.anon }
%struct.anon = type { ptr, i8 }
%struct.pref_custom_cbs = type { ptr, ptr, ptr, ptr, ptr, ptr, ptr }

@.str = private unnamed_addr constant [5 x i8] c"Epan\00", align 1
@.str.1 = private unnamed_addr constant [13 x i8] c"epan/prefs.c\00", align 1
@.str.8 = private unnamed_addr constant [31 x i8] c"assertion \22not reached\22 failed\00", align 1
@__func__.prefs_set_string_value = private unnamed_addr constant [23 x i8] c"prefs_set_string_value\00", align 1

; Function Attrs: null_pointer_is_valid sspstrong uwtable
define internal void @pref_set_string_like_pref_value(ptr noundef %0, ptr noundef %1) #1 {
  %3 = alloca ptr, align 8
  %4 = alloca ptr, align 8
  store ptr %0, ptr %3, align 8
  store ptr %1, ptr %4, align 8
  %5 = load ptr, ptr %3, align 8
  %6 = getelementptr inbounds nuw %struct.preference, ptr %5, i32 0, i32 6
  %7 = load ptr, ptr %6, align 8
  %8 = load ptr, ptr %7, align 8
  call void @g_free(ptr noundef %8)
  %9 = load ptr, ptr %4, align 8
  %10 = call noalias ptr @g_strdup(ptr noundef %9)
  %11 = load ptr, ptr %3, align 8
  %12 = getelementptr inbounds nuw %struct.preference, ptr %11, i32 0, i32 6
  %13 = load ptr, ptr %12, align 8
  store ptr %10, ptr %13, align 8
  ret void
}

; Function Attrs: nounwind null_pointer_is_valid sspstrong uwtable
define i32 @prefs_get_effect_flags(ptr noundef %0) #0 {
  %2 = alloca i32, align 4
  %3 = alloca ptr, align 8
  store ptr %0, ptr %3, align 8
  %4 = load ptr, ptr %3, align 8
  %5 = icmp eq ptr %4, null
  br i1 %5, label %6, label %7

6:                                                ; preds = %1
  store i32 0, ptr %2, align 4
  br label %11

7:                                                ; preds = %1
  %8 = load ptr, ptr %3, align 8
  %9 = getelementptr inbounds nuw %struct.preference, ptr %8, i32 0, i32 5
  %10 = load i32, ptr %9, align 8
  store i32 %10, ptr %2, align 4
  br label %11

11:                                               ; preds = %7, %6
  %12 = load i32, ptr %2, align 4
  ret i32 %12
}

; Function Attrs: null_pointer_is_valid sspstrong uwtable
define i32 @prefs_set_string_value(ptr noundef %0, ptr noundef %1, i32 noundef %2) #1 {
  %4 = alloca ptr, align 8
  %5 = alloca ptr, align 8
  %6 = alloca i32, align 4
  %7 = alloca i32, align 4
  store ptr %0, ptr %4, align 8
  store ptr %1, ptr %5, align 8
  store i32 %2, ptr %6, align 4
  call void @llvm.lifetime.start.p0(i64 4, ptr %7) #17
  store i32 0, ptr %7, align 4
  %8 = load i32, ptr %6, align 4
  switch i32 %8, label %104 [
    i32 0, label %9
    i32 1, label %43
    i32 2, label %76
  ]

9:                                                ; preds = %3
  %10 = load ptr, ptr %4, align 8
  %11 = getelementptr inbounds nuw %struct.preference, ptr %10, i32 0, i32 8
  %12 = load ptr, ptr %11, align 8
  %13 = load i8, ptr %12, align 1
  %14 = icmp ne i8 %13, 0
  br i1 %14, label %15, label %33

15:                                               ; preds = %9
  %16 = load ptr, ptr %4, align 8
  %17 = getelementptr inbounds nuw %struct.preference, ptr %16, i32 0, i32 8
  %18 = load ptr, ptr %17, align 8
  %19 = load ptr, ptr %5, align 8
  %20 = call i32 @strcmp(ptr noundef %18, ptr noundef %19) #22
  %21 = icmp ne i32 %20, 0
  br i1 %21, label %22, label %32

22:                                               ; preds = %15
  %23 = load ptr, ptr %4, align 8
  %24 = call i32 @prefs_get_effect_flags(ptr noundef %23)
  store i32 %24, ptr %7, align 4
  %25 = load ptr, ptr %4, align 8
  %26 = getelementptr inbounds nuw %struct.preference, ptr %25, i32 0, i32 8
  %27 = load ptr, ptr %26, align 8
  call void @g_free(ptr noundef %27)
  %28 = load ptr, ptr %5, align 8
  %29 = call noalias ptr @g_strdup(ptr noundef %28)
  %30 = load ptr, ptr %4, align 8
  %31 = getelementptr inbounds nuw %struct.preference, ptr %30, i32 0, i32 8
  store ptr %29, ptr %31, align 8
  br label %32

32:                                               ; preds = %22, %15
  br label %42

33:                                               ; preds = %9
  %34 = load ptr, ptr %5, align 8
  %35 = icmp ne ptr %34, null
  br i1 %35, label %36, label %41

36:                                               ; preds = %33
  %37 = load ptr, ptr %5, align 8
  %38 = call noalias ptr @g_strdup(ptr noundef %37)
  %39 = load ptr, ptr %4, align 8
  %40 = getelementptr inbounds nuw %struct.preference, ptr %39, i32 0, i32 8
  store ptr %38, ptr %40, align 8
  br label %41

41:                                               ; preds = %36, %33
  br label %42

42:                                               ; preds = %41, %32
  br label %105

43:                                               ; preds = %3
  %44 = load ptr, ptr %4, align 8
  %45 = getelementptr inbounds nuw %struct.preference, ptr %44, i32 0, i32 7
  %46 = load ptr, ptr %45, align 8
  %47 = icmp ne ptr %46, null
  br i1 %47, label %48, label %66

48:                                               ; preds = %43
  %49 = load ptr, ptr %4, align 8
  %50 = getelementptr inbounds nuw %struct.preference, ptr %49, i32 0, i32 7
  %51 = load ptr, ptr %50, align 8
  %52 = load ptr, ptr %5, align 8
  %53 = call i32 @strcmp(ptr noundef %51, ptr noundef %52) #22
  %54 = icmp ne i32 %53, 0
  br i1 %54, label %55, label %65

55:                                               ; preds = %48
  %56 = load ptr, ptr %4, align 8
  %57 = call i32 @prefs_get_effect_flags(ptr noundef %56)
  store i32 %57, ptr %7, align 4
  %58 = load ptr, ptr %4, align 8
  %59 = getelementptr inbounds nuw %struct.preference, ptr %58, i32 0, i32 7
  %60 = load ptr, ptr %59, align 8
  call void @g_free(ptr noundef %60)
  %61 = load ptr, ptr %5, align 8
  %62 = call noalias ptr @g_strdup(ptr noundef %61)
  %63 = load ptr, ptr %4, align 8
  %64 = getelementptr inbounds nuw %struct.preference, ptr %63, i32 0, i32 7
  store ptr %62, ptr %64, align 8
  br label %65

65:                                               ; preds = %55, %48
  br label %75

66:                                               ; preds = %43
  %67 = load ptr, ptr %5, align 8
  %68 = icmp ne ptr %67, null
  br i1 %68, label %69, label %74

69:                                               ; preds = %66
  %70 = load ptr, ptr %5, align 8
  %71 = call noalias ptr @g_strdup(ptr noundef %70)
  %72 = load ptr, ptr %4, align 8
  %73 = getelementptr inbounds nuw %struct.preference, ptr %72, i32 0, i32 7
  store ptr %71, ptr %73, align 8
  br label %74

74:                                               ; preds = %69, %66
  br label %75

75:                                               ; preds = %74, %65
  br label %105

76:                                               ; preds = %3
  %77 = load ptr, ptr %4, align 8
  %78 = getelementptr inbounds nuw %struct.preference, ptr %77, i32 0, i32 6
  %79 = load ptr, ptr %78, align 8
  %80 = load ptr, ptr %79, align 8
  %81 = icmp ne ptr %80, null
  br i1 %81, label %82, label %96

82:                                               ; preds = %76
  %83 = load ptr, ptr %4, align 8
  %84 = getelementptr inbounds nuw %struct.preference, ptr %83, i32 0, i32 6
  %85 = load ptr, ptr %84, align 8
  %86 = load ptr, ptr %85, align 8
  %87 = load ptr, ptr %5, align 8
  %88 = call i32 @strcmp(ptr noundef %86, ptr noundef %87) #22
  %89 = icmp ne i32 %88, 0
  br i1 %89, label %90, label %95

90:                                               ; preds = %82
  %91 = load ptr, ptr %4, align 8
  %92 = call i32 @prefs_get_effect_flags(ptr noundef %91)
  store i32 %92, ptr %7, align 4
  %93 = load ptr, ptr %4, align 8
  %94 = load ptr, ptr %5, align 8
  call void @pref_set_string_like_pref_value(ptr noundef %93, ptr noundef %94)
  br label %95

95:                                               ; preds = %90, %82
  br label %103

96:                                               ; preds = %76
  %97 = load ptr, ptr %5, align 8
  %98 = icmp ne ptr %97, null
  br i1 %98, label %99, label %102

99:                                               ; preds = %96
  %100 = load ptr, ptr %4, align 8
  %101 = load ptr, ptr %5, align 8
  call void @pref_set_string_like_pref_value(ptr noundef %100, ptr noundef %101)
  br label %102

102:                                              ; preds = %99, %96
  br label %103

103:                                              ; preds = %102, %95
  br label %105

104:                                              ; preds = %3
  call void (ptr, i32, ptr, i64, ptr, ptr, ...) @ws_log_fatal_full(ptr noundef @.str, i32 noundef 7, ptr noundef @.str.1, i64 noundef 1527, ptr noundef @__func__.prefs_set_string_value, ptr noundef @.str.8) #18
  unreachable

105:                                              ; preds = %103, %75, %42
  %106 = load i32, ptr %7, align 4
  call void @llvm.lifetime.end.p0(i64 4, ptr %7) #17
  ret i32 %106
}