; Function Attrs: null_pointer_is_valid sspstrong uwtable
define i32 @prefs_set_string_value(ptr noundef captures(address_is_null) %0, ptr noundef %1, i32 noundef %2) local_unnamed_addr #1 {
  switch i32 %2, label %50 [
    i32 0, label %4
    i32 1, label %19
    i32 2, label %33
  ]

4:                                                ; preds = %3
  %5 = getelementptr inbounds nuw i8, ptr %0, i64 56
  %6 = load ptr, ptr %5, align 8
  %7 = load i8, ptr %6, align 1
  %.not38 = icmp eq i8 %7, 0
  br i1 %.not38, label %16, label %8

8:                                                ; preds = %4
  %9 = tail call i32 @strcmp(ptr noundef %6, ptr noundef %1) #29
  %.not40 = icmp eq i32 %9, 0
  br i1 %.not40, label %51, label %10

10:                                               ; preds = %8
  %11 = icmp eq ptr %0, null
  br i1 %11, label %prefs_get_effect_flags.exit, label %12

12:                                               ; preds = %10
  %13 = getelementptr inbounds nuw i8, ptr %0, i64 32
  %14 = load i32, ptr %13, align 8
  br label %prefs_get_effect_flags.exit

prefs_get_effect_flags.exit:                      ; preds = %10, %12
  %.0.i = phi i32 [ %14, %12 ], [ 0, %10 ]
  tail call void @g_free(ptr noundef %6)
  %15 = tail call noalias ptr @g_strdup(ptr noundef %1)
  store ptr %15, ptr %5, align 8
  br label %51

16:                                               ; preds = %4
  %.not39 = icmp eq ptr %1, null
  br i1 %.not39, label %51, label %17

17:                                               ; preds = %16
  %18 = tail call noalias ptr @g_strdup(ptr noundef nonnull %1)
  store ptr %18, ptr %5, align 8
  br label %51

19:                                               ; preds = %3
  %20 = getelementptr inbounds nuw i8, ptr %0, i64 48
  %21 = load ptr, ptr %20, align 8
  %.not35 = icmp eq ptr %21, null
  br i1 %.not35, label %30, label %22

22:                                               ; preds = %19
  %23 = tail call i32 @strcmp(ptr noundef nonnull dereferenceable(1) %21, ptr noundef %1) #29
  %.not37 = icmp eq i32 %23, 0
  br i1 %.not37, label %51, label %24

24:                                               ; preds = %22
  %25 = icmp eq ptr %0, null
  br i1 %25, label %prefs_get_effect_flags.exit42, label %26

26:                                               ; preds = %24
  %27 = getelementptr inbounds nuw i8, ptr %0, i64 32
  %28 = load i32, ptr %27, align 8
  br label %prefs_get_effect_flags.exit42

prefs_get_effect_flags.exit42:                    ; preds = %24, %26
  %.0.i41 = phi i32 [ %28, %26 ], [ 0, %24 ]
  tail call void @g_free(ptr noundef nonnull %21)
  %29 = tail call noalias ptr @g_strdup(ptr noundef %1)
  store ptr %29, ptr %20, align 8
  br label %51

30:                                               ; preds = %19
  %.not36 = icmp eq ptr %1, null
  br i1 %.not36, label %51, label %31

31:                                               ; preds = %30
  %32 = tail call noalias ptr @g_strdup(ptr noundef nonnull %1)
  store ptr %32, ptr %20, align 8
  br label %51

33:                                               ; preds = %3
  %34 = getelementptr inbounds nuw i8, ptr %0, i64 40
  %35 = load ptr, ptr %34, align 8
  %36 = load ptr, ptr %35, align 8
  %.not = icmp eq ptr %36, null
  br i1 %.not, label %46, label %37

37:                                               ; preds = %33
  %38 = tail call i32 @strcmp(ptr noundef nonnull dereferenceable(1) %36, ptr noundef %1) #29
  %.not34 = icmp eq i32 %38, 0
  br i1 %.not34, label %51, label %39

39:                                               ; preds = %37
  %40 = icmp eq ptr %0, null
  br i1 %40, label %prefs_get_effect_flags.exit44, label %41

41:                                               ; preds = %39
  %42 = getelementptr inbounds nuw i8, ptr %0, i64 32
  %43 = load i32, ptr %42, align 8
  br label %prefs_get_effect_flags.exit44

prefs_get_effect_flags.exit44:                    ; preds = %39, %41
  %.0.i43 = phi i32 [ %43, %41 ], [ 0, %39 ]
  tail call void @g_free(ptr noundef nonnull %36)
  %44 = tail call noalias ptr @g_strdup(ptr noundef %1)
  %45 = load ptr, ptr %34, align 8
  store ptr %44, ptr %45, align 8
  br label %51

46:                                               ; preds = %33
  %.not33 = icmp eq ptr %1, null
  br i1 %.not33, label %51, label %47

47:                                               ; preds = %46
  tail call void @g_free(ptr noundef null)
  %48 = tail call noalias ptr @g_strdup(ptr noundef nonnull %1)
  %49 = load ptr, ptr %34, align 8
  store ptr %48, ptr %49, align 8
  br label %51

50:                                               ; preds = %3
  tail call void (ptr, i32, ptr, i64, ptr, ptr, ...) @ws_log_fatal_full(ptr noundef nonnull @.str, i32 noundef 7, ptr noundef nonnull @.str.1, i64 noundef 1527, ptr noundef nonnull @__func__.prefs_set_string_value, ptr noundef nonnull @.str.8) #26
  unreachable

51:                                               ; preds = %prefs_get_effect_flags.exit44, %37, %47, %46, %prefs_get_effect_flags.exit42, %22, %31, %30, %prefs_get_effect_flags.exit, %8, %17, %16
  %.0 = phi i32 [ %.0.i43, %prefs_get_effect_flags.exit44 ], [ 0, %37 ], [ 0, %47 ], [ 0, %46 ], [ %.0.i41, %prefs_get_effect_flags.exit42 ], [ 0, %22 ], [ 0, %31 ], [ 0, %30 ], [ %.0.i, %prefs_get_effect_flags.exit ], [ 0, %8 ], [ 0, %17 ], [ 0, %16 ]
  ret i32 %.0
}